; Function Attrs: nounwind uwtable
define dso_local noundef ptr @list_make1_impl(i32 noundef %0, ptr %1) local_unnamed_addr #0 {
  %3 = tail call ptr @palloc(i64 noundef 64) #9
  store i32 %0, ptr %3, align 8
  %4 = getelementptr inbounds nuw i8, ptr %3, i64 4
  store i32 1, ptr %4, align 4
  %5 = getelementptr inbounds nuw i8, ptr %3, i64 8
  store i32 5, ptr %5, align 8
  %6 = getelementptr inbounds nuw i8, ptr %3, i64 24
  %7 = getelementptr inbounds nuw i8, ptr %3, i64 16
  store ptr %6, ptr %7, align 8
  store ptr %1, ptr %6, align 8
  ret ptr %3
}